; Function Attrs: mustprogress nofree norecurse nosync nounwind willreturn memory(argmem: readwrite) uwtable
define hidden void @_Z24pj_inherit_ellipsoid_defPK8PJconstsPS_(ptr noundef readonly captures(none) %0, ptr noundef writeonly captures(none) initializes((168, 344)) %1) local_unnamed_addr #4 {
  %3 = getelementptr inbounds nuw i8, ptr %0, i64 168
  %4 = load double, ptr %3, align 8, !tbaa !44
  %5 = getelementptr inbounds nuw i8, ptr %1, i64 168
  store double %4, ptr %5, align 8, !tbaa !44
  %6 = getelementptr inbounds nuw i8, ptr %0, i64 176
  %7 = load double, ptr %6, align 8, !tbaa !50
  %8 = getelementptr inbounds nuw i8, ptr %1, i64 176
  store double %7, ptr %8, align 8, !tbaa !50
  %9 = getelementptr inbounds nuw i8, ptr %0, i64 184
  %10 = load double, ptr %9, align 8, !tbaa !51
  %11 = getelementptr inbounds nuw i8, ptr %1, i64 184
  store double %10, ptr %11, align 8, !tbaa !51
  %12 = getelementptr inbounds nuw i8, ptr %0, i64 192
  %13 = load double, ptr %12, align 8, !tbaa !52
  %14 = getelementptr inbounds nuw i8, ptr %1, i64 192
  store double %13, ptr %14, align 8, !tbaa !52
  %15 = getelementptr inbounds nuw i8, ptr %0, i64 200
  %16 = load double, ptr %15, align 8, !tbaa !53
  %17 = getelementptr inbounds nuw i8, ptr %1, i64 200
  store double %16, ptr %17, align 8, !tbaa !53
  %18 = getelementptr inbounds nuw i8, ptr %0, i64 208
  %19 = load double, ptr %18, align 8, !tbaa !54
  %20 = getelementptr inbounds nuw i8, ptr %1, i64 208
  store double %19, ptr %20, align 8, !tbaa !54
  %21 = getelementptr inbounds nuw i8, ptr %0, i64 216
  %22 = load double, ptr %21, align 8, !tbaa !55
  %23 = getelementptr inbounds nuw i8, ptr %1, i64 216
  store double %22, ptr %23, align 8, !tbaa !55
  %24 = getelementptr inbounds nuw i8, ptr %0, i64 224
  %25 = load double, ptr %24, align 8, !tbaa !56
  %26 = getelementptr inbounds nuw i8, ptr %1, i64 224
  store double %25, ptr %26, align 8, !tbaa !56
  %27 = getelementptr inbounds nuw i8, ptr %0, i64 232
  %28 = load double, ptr %27, align 8, !tbaa !57
  %29 = getelementptr inbounds nuw i8, ptr %1, i64 232
  store double %28, ptr %29, align 8, !tbaa !57
  %30 = getelementptr inbounds nuw i8, ptr %0, i64 240
  %31 = load double, ptr %30, align 8, !tbaa !58
  %32 = getelementptr inbounds nuw i8, ptr %1, i64 240
  store double %31, ptr %32, align 8, !tbaa !58
  %33 = getelementptr inbounds nuw i8, ptr %0, i64 248
  %34 = load double, ptr %33, align 8, !tbaa !59
  %35 = getelementptr inbounds nuw i8, ptr %1, i64 248
  store double %34, ptr %35, align 8, !tbaa !59
  %36 = getelementptr inbounds nuw i8, ptr %0, i64 256
  %37 = load double, ptr %36, align 8, !tbaa !60
  %38 = getelementptr inbounds nuw i8, ptr %1, i64 256
  store double %37, ptr %38, align 8, !tbaa !60
  %39 = getelementptr inbounds nuw i8, ptr %0, i64 264
  %40 = load double, ptr %39, align 8, !tbaa !61
  %41 = getelementptr inbounds nuw i8, ptr %1, i64 264
  store double %40, ptr %41, align 8, !tbaa !61
  %42 = getelementptr inbounds nuw i8, ptr %0, i64 272
  %43 = load double, ptr %42, align 8, !tbaa !62
  %44 = getelementptr inbounds nuw i8, ptr %1, i64 272
  store double %43, ptr %44, align 8, !tbaa !62
  %45 = getelementptr inbounds nuw i8, ptr %0, i64 280
  %46 = load double, ptr %45, align 8, !tbaa !63
  %47 = getelementptr inbounds nuw i8, ptr %1, i64 280
  store double %46, ptr %47, align 8, !tbaa !63
  %48 = getelementptr inbounds nuw i8, ptr %0, i64 288
  %49 = load double, ptr %48, align 8, !tbaa !64
  %50 = getelementptr inbounds nuw i8, ptr %1, i64 288
  store double %49, ptr %50, align 8, !tbaa !64
  %51 = getelementptr inbounds nuw i8, ptr %0, i64 296
  %52 = load double, ptr %51, align 8, !tbaa !65
  %53 = getelementptr inbounds nuw i8, ptr %1, i64 296
  store double %52, ptr %53, align 8, !tbaa !65
  %54 = getelementptr inbounds nuw i8, ptr %0, i64 304
  %55 = load double, ptr %54, align 8, !tbaa !66
  %56 = getelementptr inbounds nuw i8, ptr %1, i64 304
  store double %55, ptr %56, align 8, !tbaa !66
  %57 = getelementptr inbounds nuw i8, ptr %0, i64 312
  %58 = load double, ptr %57, align 8, !tbaa !67
  %59 = getelementptr inbounds nuw i8, ptr %1, i64 312
  store double %58, ptr %59, align 8, !tbaa !67
  %60 = getelementptr inbounds nuw i8, ptr %0, i64 320
  %61 = load double, ptr %60, align 8, !tbaa !68
  %62 = getelementptr inbounds nuw i8, ptr %1, i64 320
  store double %61, ptr %62, align 8, !tbaa !68
  %63 = getelementptr inbounds nuw i8, ptr %0, i64 328
  %64 = load double, ptr %63, align 8, !tbaa !69
  %65 = getelementptr inbounds nuw i8, ptr %1, i64 328
  store double %64, ptr %65, align 8, !tbaa !69
  %66 = getelementptr inbounds nuw i8, ptr %0, i64 336
  %67 = load double, ptr %66, align 8, !tbaa !70
  %68 = getelementptr inbounds nuw i8, ptr %1, i64 336
  store double %67, ptr %68, align 8, !tbaa !70
  ret void
}